Certificate:
    Data:
        Version: 3 (0x2)
        Serial Number: 1 (0x1)
        Signature Algorithm: sha256WithRSAEncryption
        Issuer: CN=QUIC Server Root CA
        Validity
            Not Before: Oct 28 16:26:40 2022 GMT
            Not After : Oct 31 16:26:40 2022 GMT
        Subject: C=US, ST=California, L=Mountain View, O=QUIC Server, CN=127.0.0.1
        Subject Public Key Info:
            Public Key Algorithm: rsaEncryption
                RSA Public-Key: (2048 bit)
                Modulus:
                    00:bf:8b:3c:d6:9a:2b:78:a1:4f:11:4a:01:b9:5e:
                    23:4f:43:a5:78:62:1c:6d:9f:41:c7:79:79:c1:fe:
                    dd:07:f3:45:8b:c6:e6:6c:4f:70:06:b6:5c:04:28:
                    04:35:92:c2:0d:8f:82:8f:0d:aa:36:c6:c6:e4:74:
                    a6:66:4d:25:6e:1c:9b:a9:ef:b4:31:6d:df:02:1e:
                    86:e1:9a:fe:3a:18:36:52:d3:0f:cc:ea:b3:94:ff:
                    8c:25:99:86:cd:71:4f:5b:fa:3a:9f:f0:d8:0c:26:
                    8e:e2:9d:7a:0f:96:cb:8c:75:3b:2c:89:ad:d7:a4:
                    3a:17:2d:72:ae:78:21:26:f6:de:60:38:58:7d:18:
                    70:92:28:e4:3a:62:1a:e2:26:14:b1:5d:f6:84:09:
                    e1:66:fb:5a:c3:de:25:0d:af:59:97:53:11:5a:6a:
                    38:c4:c2:f9:06:6c:4b:e7:57:52:93:5e:5f:e6:e8:
                    ee:2b:4e:30:d9:2a:1a:f1:f1:89:71:6a:c3:be:62:
                    b5:20:76:38:3e:51:f4:a1:b7:31:2f:6f:64:2c:7a:
                    b3:84:3e:77:37:bb:bb:08:09:16:d3:ca:7b:15:5c:
                    81:b1:87:05:68:b4:ce:c8:8f:a5:4a:0a:54:7d:27:
                    0d:a1:86:f0:73:0b:60:fe:d7:f0:dd:a8:af:8d:3d:
                    13:d3
                Exponent: 65537 (0x10001)
        X509v3 extensions:
            X509v3 Basic Constraints: critical
                CA:FALSE
            X509v3 Subject Key Identifier: 
                AE:08:58:B6:A2:E6:56:2E:59:46:31:D3:13:D6:F3:C2:14:14:69:DE
            X509v3 Authority Key Identifier: 
                keyid:D9:87:1B:FB:20:EF:7B:A8:46:86:FA:5E:48:A2:C0:BD:D3:B4:DA:1B

            X509v3 Extended Key Usage: 
                TLS Web Server Authentication, TLS Web Client Authentication
            X509v3 Subject Alternative Name: 
                DNS:www.example.org, DNS:mail.example.org, DNS:mail.example.com, IP Address:127.0.0.1
    Signature Algorithm: sha256WithRSAEncryption
         64:26:d3:b0:d1:22:97:be:b2:29:28:b4:cd:e1:b3:f0:e8:64:
         7f:6a:2e:17:88:cb:47:8c:32:21:98:bd:63:cd:d5:e8:3a:b6:
         9c:1d:54:b0:6b:af:dc:26:ea:8e:17:29:f4:7a:bf:6b:f6:d2:
         2b:9e:1c:5e:a3:b0:e8:ff:ac:da:ef:44:2a:36:bc:64:1f:33:
         4d:09:c3:11:7e:04:06:8b:01:9d:01:97:e7:a1:1a:db:d7:f9:
         2f:b0:ae:79:c3:84:27:0b:3c:89:30:7c:3b:35:be:59:08:67:
         15:bb:64:fc:0a:de:52:0c:fd:23:30:8e:4b:cd:4b:40:aa:76:
         69:80:85:f1:27:0c:78:ab:16:c1:50:6d:1f:4a:2b:c0:5f:8c:
         e5:d0:2b:2b:ce:77:7e:da:65:03:85:50:87:be:ba:64:b9:21:
         0c:6c:1f:e2:33:e5:51:d5:18:a1:d9:1f:eb:ab:80:89:fb:54:
         dd:c3:5a:c0:72:91:97:42:13:15:2c:10:a4:45:75:8a:2d:8a:
         e0:1d:07:f3:cc:d3:2f:55:21:71:58:a6:fa:5b:dd:58:b4:c5:
         a4:f1:16:8c:f8:1c:43:51:4f:65:33:d2:0a:9d:af:09:a0:a7:
         7f:84:cc:42:d2:5c:f5:a7:a0:c3:83:89:f0:d0:61:35:52:36:
         8a:4a:66:90
-----BEGIN CERTIFICATE-----
MIIDtDCCApygAwIBAgIBATANBgkqhkiG9w0BAQsFADAeMRwwGgYDVQQDDBNRVUlD
IFNlcnZlciBSb290IENBMB4XDTIyMTAyODE2MjY0MFoXDTIyMTAzMTE2MjY0MFow
ZDELMAkGA1UEBhMCVVMxEzARBgNVBAgMCkNhbGlmb3JuaWExFjAUBgNVBAcMDU1v
dW50YWluIFZpZXcxFDASBgNVBAoMC1FVSUMgU2VydmVyMRIwEAYDVQQDDAkxMjcu
MC4wLjEwggEiMA0GCSqGSIb3DQEBAQUAA4IBDwAwggEKAoIBAQC/izzWmit4oU8R
SgG5XiNPQ6V4Yhxtn0HHeXnB/t0H80WLxuZsT3AGtlwEKAQ1ksINj4KPDao2xsbk
dKZmTSVuHJup77Qxbd8CHobhmv46GDZS0w/M6rOU/4wlmYbNcU9b+jqf8NgMJo7i
nXoPlsuMdTssia3XpDoXLXKueCEm9t5gOFh9GHCSKOQ6YhriJhSxXfaECeFm+1rD
3iUNr1mXUxFaajjEwvkGbEvnV1KTXl/m6O4rTjDZKhrx8YlxasO+YrUgdjg+UfSh
tzEvb2QserOEPnc3u7sICRbTynsVXIGxhwVotM7Ij6VKClR9Jw2hhvBzC2D+1/Dd
qK+NPRPTAgMBAAGjgbYwgbMwDAYDVR0TAQH/BAIwADAdBgNVHQ4EFgQUrghYtqLm
Vi5ZRjHTE9bzwhQUad4wHwYDVR0jBBgwFoAU2Ycb+yDve6hGhvpeSKLAvdO02hsw
HQYDVR0lBBYwFAYIKwYBBQUHAwEGCCsGAQUFBwMCMEQGA1UdEQQ9MDuCD3d3dy5l
eGFtcGxlLm9yZ4IQbWFpbC5leGFtcGxlLm9yZ4IQbWFpbC5leGFtcGxlLmNvbYcE
fwAAATANBgkqhkiG9w0BAQsFAAOCAQEAZCbTsNEil76yKSi0zeGz8Ohkf2ouF4jL
R4wyIZi9Y83V6Dq2nB1UsGuv3Cbqjhcp9Hq/a/bSK54cXqOw6P+s2u9EKja8ZB8z
TQnDEX4EBosBnQGX56Ea29f5L7CuecOEJws8iTB8OzW+WQhnFbtk/AreUgz9IzCO
S81LQKp2aYCF8ScMeKsWwVBtH0orwF+M5dArK853ftplA4VQh766ZLkhDGwf4jPl
UdUYodkf66uAiftU3cNawHKRl0ITFSwQpEV1ii2K4B0H88zTL1UhcVim+lvdWLTF
pPEWjPgcQ1FPZTPSCp2vCaCnf4TMQtJc9aegw4OJ8NBhNVI2ikpmkA==
-----END CERTIFICATE-----
