Certificate:
    Data:
        Version: 3 (0x2)
        Serial Number:
            f1:42:49:ee:2e:1b:07:a4:23:6c:11:fc:76:9a:20:c0:18:e9:01
        Signature Algorithm: sha256WithRSAEncryption
        Issuer: CN = QUIC Server Root CA
        Validity
            Not Before: Oct 28 16:26:40 2022 GMT
            Not After : Oct 31 16:26:40 2022 GMT
        Subject: CN = QUIC Server Root CA
        Subject Public Key Info:
            Public Key Algorithm: rsaEncryption
                RSA Public-Key: (2048 bit)
                Modulus:
                    00:c6:72:46:c1:ad:67:df:8e:0d:92:2e:7c:a9:a1:
                    42:9b:00:d5:a6:9f:19:f3:e7:ac:6b:36:b8:46:4e:
                    70:87:9c:d8:c2:45:9a:05:af:3d:78:5d:28:1e:f7:
                    5f:dc:67:81:74:ee:57:7b:e7:c8:cc:d7:7b:00:a9:
                    9f:71:17:cb:78:3a:ab:a8:56:48:55:ee:cc:30:e7:
                    9c:40:91:2d:c1:d5:2f:98:b5:0c:18:8e:b2:99:06:
                    32:77:b2:1e:32:fe:6e:12:cc:99:b6:2e:3c:85:84:
                    e0:b6:db:5c:55:6e:36:5f:e3:c1:df:47:30:b9:9c:
                    77:38:17:2c:95:6e:f2:c0:d7:19:a6:cf:31:fb:0a:
                    5a:c5:87:5e:7b:1d:89:2a:7e:6d:0b:2f:04:67:0c:
                    7f:8e:f4:09:34:63:ce:05:c4:af:95:56:79:9e:63:
                    72:c6:6a:07:af:21:71:dd:31:41:57:ae:82:be:08:
                    8e:73:3f:c9:4d:69:bb:2e:28:83:21:6a:28:a0:2a:
                    f4:ef:6e:8b:8d:d7:35:55:6a:8b:ca:ad:e0:b9:e1:
                    86:81:23:8d:fd:9d:e1:42:24:53:a2:56:a5:db:24:
                    60:cc:47:a7:51:45:ba:ef:ac:b0:7d:29:04:a0:9a:
                    c0:b8:2e:c1:3b:51:ba:ad:88:e9:6c:7e:af:bd:dc:
                    34:05
                Exponent: 65537 (0x10001)
        X509v3 extensions:
            X509v3 Basic Constraints: critical
                CA:TRUE
            X509v3 Subject Key Identifier: 
                D9:87:1B:FB:20:EF:7B:A8:46:86:FA:5E:48:A2:C0:BD:D3:B4:DA:1B
            X509v3 Key Usage: critical
                Certificate Sign, CRL Sign
    Signature Algorithm: sha256WithRSAEncryption
         a3:bb:17:c2:0b:fb:1e:69:d2:db:38:49:05:d5:0e:7e:48:65:
         d9:4f:03:be:a8:16:9f:51:d0:6a:3b:a7:6c:a3:6d:fc:66:be:
         a8:67:36:6e:9a:eb:27:72:7d:40:d9:69:d6:e4:66:60:5e:3a:
         e0:4c:3e:47:89:e6:6d:7f:5a:bf:69:00:b1:59:40:22:73:61:
         4c:e8:32:50:8f:f2:67:69:f4:81:de:6d:30:c8:ac:70:79:d9:
         31:77:1a:91:fd:88:ae:76:42:94:3e:6a:68:6f:60:f7:9d:c2:
         e5:9e:a8:55:bd:47:79:66:b8:56:d2:c0:56:0a:27:84:02:d7:
         88:49:ed:88:c4:24:c6:a7:b1:5b:56:c7:66:26:94:72:2e:10:
         a1:15:bf:54:66:a6:08:25:ad:03:be:cd:f1:3e:d3:1d:be:85:
         1f:fe:8a:2a:c6:23:e5:6e:4b:6c:07:7d:62:95:78:3b:d0:53:
         1e:aa:60:db:36:a3:53:9a:48:a8:35:69:76:c1:45:f7:ea:49:
         6f:4b:fd:93:bd:34:ab:5b:0d:64:2b:d3:31:17:c0:14:38:a2:
         bc:68:7e:e3:ff:b5:75:18:31:44:a7:65:eb:bd:97:cb:ff:dd:
         e4:7f:30:75:4a:fe:2d:e2:f8:78:c9:d9:ce:00:95:84:d2:33:
         04:b9:b0:30
-----BEGIN CERTIFICATE-----
MIIDDDCCAfSgAwIBAgIUAPFCSe4uGwekI2wR/HaaIMAY6QEwDQYJKoZIhvcNAQEL
BQAwHjEcMBoGA1UEAwwTUVVJQyBTZXJ2ZXIgUm9vdCBDQTAeFw0yMjEwMjgxNjI2
NDBaFw0yMjEwMzExNjI2NDBaMB4xHDAaBgNVBAMME1FVSUMgU2VydmVyIFJvb3Qg
Q0EwggEiMA0GCSqGSIb3DQEBAQUAA4IBDwAwggEKAoIBAQDGckbBrWffjg2SLnyp
oUKbANWmnxnz56xrNrhGTnCHnNjCRZoFrz14XSge91/cZ4F07ld758jM13sAqZ9x
F8t4OquoVkhV7sww55xAkS3B1S+YtQwYjrKZBjJ3sh4y/m4SzJm2LjyFhOC221xV
bjZf48HfRzC5nHc4FyyVbvLA1xmmzzH7ClrFh157HYkqfm0LLwRnDH+O9Ak0Y84F
xK+VVnmeY3LGagevIXHdMUFXroK+CI5zP8lNabsuKIMhaiigKvTvbouN1zVVaovK
reC54YaBI439neFCJFOiVqXbJGDMR6dRRbrvrLB9KQSgmsC4LsE7UbqtiOlsfq+9
3DQFAgMBAAGjQjBAMA8GA1UdEwEB/wQFMAMBAf8wHQYDVR0OBBYEFNmHG/sg73uo
Rob6XkiiwL3TtNobMA4GA1UdDwEB/wQEAwIBBjANBgkqhkiG9w0BAQsFAAOCAQEA
o7sXwgv7HmnS2zhJBdUOfkhl2U8DvqgWn1HQajunbKNt/Ga+qGc2bprrJ3J9QNlp
1uRmYF464Ew+R4nmbX9av2kAsVlAInNhTOgyUI/yZ2n0gd5tMMiscHnZMXcakf2I
rnZClD5qaG9g953C5Z6oVb1HeWa4VtLAVgonhALXiEntiMQkxqexW1bHZiaUci4Q
oRW/VGamCCWtA77N8T7THb6FH/6KKsYj5W5LbAd9YpV4O9BTHqpg2zajU5pIqDVp
dsFF9+pJb0v9k700q1sNZCvTMRfAFDiivGh+4/+1dRgxRKdl672Xy//d5H8wdUr+
LeL4eMnZzgCVhNIzBLmwMA==
-----END CERTIFICATE-----
